target datalayout = "e-m:e-p270:32:32-p271:32:32-p272:64:64-i64:64-i128:128-f80:128-n8:16:32:64-S128"
target triple = "x86_64-pc-linux-gnu"

%class.QString = type { %struct.QArrayDataPointer }
%struct.QArrayDataPointer = type { ptr, ptr, i64 }
%class.QPen = type { ptr }
%class.QSharedPointer = type { ptr, ptr }
%class.QFont = type <{ %class.QExplicitlySharedDataPointer, i32, [4 x i8] }>
%class.QExplicitlySharedDataPointer = type { ptr }
%class.SequenceDiagram = type { %class.QCPAbstractPlottable, ptr, ptr, ptr, ptr, ptr, i32, double }
%class.QCPAbstractPlottable = type { %class.QCPLayerable.base, %class.QString, i8, i8, %class.QPen, %class.QBrush, %class.QPointer.2, %class.QPointer.2, i32, %class.QCPDataSelection, ptr }
%class.QCPLayerable.base = type <{ %class.QObject, i8, [7 x i8], ptr, %class.QPointer, ptr, i8 }>
%class.QObject = type { ptr, %class.QScopedPointer }
%class.QScopedPointer = type { ptr }
%class.QPointer = type { %class.QWeakPointer }
%class.QWeakPointer = type { ptr, ptr }
%class.QBrush = type { %"class.std::unique_ptr" }
%"class.std::unique_ptr" = type { %"struct.std::__uniq_ptr_data" }
%"struct.std::__uniq_ptr_data" = type { %"class.std::__uniq_ptr_impl" }
%"class.std::__uniq_ptr_impl" = type { %"class.std::tuple" }
%"class.std::tuple" = type { %"struct.std::_Tuple_impl" }
%"struct.std::_Tuple_impl" = type { %"struct.std::_Head_base.1" }
%"struct.std::_Head_base.1" = type { ptr }
%class.QPointer.2 = type { %class.QWeakPointer }
%class.QCPDataSelection = type { %class.QList }
%class.QList = type { %struct.QArrayDataPointer.3 }
%struct.QArrayDataPointer.3 = type { ptr, ptr, i64 }
%class.QCPAxis = type { %class.QCPLayerable.base, i32, ptr, i32, i32, %class.QFlags, %class.QFlags, %class.QPen, %class.QPen, %class.QString, %class.QFont, %class.QFont, %class.QColor, %class.QColor, i8, [7 x i8], %class.QFont, %class.QFont, %class.QColor, %class.QColor, i32, %struct.QLatin1Char, i8, i8, i8, %class.QPen, %class.QPen, %class.QPen, %class.QPen, %class.QCPRange, i8, i32, ptr, ptr, %class.QSharedPointer, %class.QList.8, %class.QList.12, %class.QList.8, i8, i32, i8, %class.QCPRange, %class.QFlags.16, %class.QFlags.16 }
%class.QFlags = type { i32 }
%class.QColor = type <{ i32, %"union.QColor::CT", [2 x i8] }>
%"union.QColor::CT" = type { %struct.anon }
%struct.anon = type { i16, i16, i16, i16, i16 }
%struct.QLatin1Char = type { i8 }
%class.QList.12 = type { %struct.QArrayDataPointer.15 }
%struct.QArrayDataPointer.15 = type { ptr, ptr, i64 }
%class.QList.8 = type { %struct.QArrayDataPointer.11 }
%struct.QArrayDataPointer.11 = type { ptr, ptr, i64 }
%class.QCPRange = type { double, double }
%class.QFlags.16 = type { i32 }
%class.QFontMetrics = type { %class.QExplicitlySharedDataPointer }

; Function Attrs: mustprogress uwtable
define linkonce_odr void @_ZNK7QCPAxis13tickLabelFontEv(ptr dead_on_unwind noalias writable sret(%class.QFont) align 8 %0, ptr noundef nonnull align 8 dereferenceable(472) %1) #1 comdat align 2 {
  %3 = alloca ptr, align 8
  %4 = alloca ptr, align 8
  store ptr %0, ptr %3, align 8
  store ptr %1, ptr %4, align 8
  %5 = load ptr, ptr %4, align 8
  %6 = getelementptr inbounds %class.QCPAxis, ptr %5, i32 0, i32 16
  call void @_ZN5QFontC1ERKS_(ptr noundef nonnull align 8 dereferenceable(12) %0, ptr noundef nonnull align 8 dereferenceable(12) %6)
  ret void
}

; Function Attrs: mustprogress uwtable
define void @_ZNK15SequenceDiagram13elidedCommentERK7QString(ptr dead_on_unwind noalias writable sret(%class.QString) align 8 %0, ptr noundef nonnull align 8 dereferenceable(240) %1, ptr noundef nonnull align 8 dereferenceable(24) %2) #1 align 2 personality ptr @__gxx_personality_v0 {
  %4 = alloca ptr, align 8
  %5 = alloca ptr, align 8
  %6 = alloca ptr, align 8
  %7 = alloca %class.QFontMetrics, align 8
  %8 = alloca %class.QFont, align 8
  %9 = alloca ptr, align 8
  %10 = alloca i32, align 4
  %11 = alloca i32, align 4
  store ptr %0, ptr %4, align 8
  store ptr %1, ptr %5, align 8
  store ptr %2, ptr %6, align 8
  %12 = load ptr, ptr %5, align 8
  %13 = getelementptr inbounds %class.SequenceDiagram, ptr %12, i32 0, i32 3
  %14 = load ptr, ptr %13, align 8
  call void @_ZNK7QCPAxis13tickLabelFontEv(ptr dead_on_unwind writable sret(%class.QFont) align 8 %8, ptr noundef nonnull align 8 dereferenceable(472) %14)
  invoke void @_ZN12QFontMetricsC1ERK5QFont(ptr noundef nonnull align 8 dereferenceable(8) %7, ptr noundef nonnull align 8 dereferenceable(12) %8)
          to label %15 unwind label %22

15:                                               ; preds = %3
  call void @_ZN5QFontD1Ev(ptr noundef nonnull align 8 dereferenceable(12) %8) #15
  %16 = invoke noundef i32 @_ZNK12QFontMetrics6heightEv(ptr noundef nonnull align 8 dereferenceable(8) %7)
          to label %17 unwind label %26

17:                                               ; preds = %15
  %18 = mul i32 %16, 20
  store i32 %18, ptr %11, align 4
  %19 = load ptr, ptr %6, align 8
  %20 = load i32, ptr %11, align 4
  invoke void @_ZNK12QFontMetrics10elidedTextERK7QStringN2Qt13TextElideModeEii(ptr dead_on_unwind writable sret(%class.QString) align 8 %0, ptr noundef nonnull align 8 dereferenceable(8) %7, ptr noundef nonnull align 8 dereferenceable(24) %19, i32 noundef 1, i32 noundef %20, i32 noundef 0)
          to label %21 unwind label %26

21:                                               ; preds = %17
  call void @_ZN12QFontMetricsD1Ev(ptr noundef nonnull align 8 dereferenceable(8) %7) #15
  ret void

22:                                               ; preds = %3
  %23 = landingpad { ptr, i32 }
          cleanup
  %24 = extractvalue { ptr, i32 } %23, 0
  store ptr %24, ptr %9, align 8
  %25 = extractvalue { ptr, i32 } %23, 1
  store i32 %25, ptr %10, align 4
  call void @_ZN5QFontD1Ev(ptr noundef nonnull align 8 dereferenceable(12) %8) #15
  br label %30

26:                                               ; preds = %17, %15
  %27 = landingpad { ptr, i32 }
          cleanup
  %28 = extractvalue { ptr, i32 } %27, 0
  store ptr %28, ptr %9, align 8
  %29 = extractvalue { ptr, i32 } %27, 1
  store i32 %29, ptr %10, align 4
  call void @_ZN12QFontMetricsD1Ev(ptr noundef nonnull align 8 dereferenceable(8) %7) #15
  br label %30

30:                                               ; preds = %26, %22
  %31 = load ptr, ptr %9, align 8
  %32 = load i32, ptr %10, align 4
  %33 = insertvalue { ptr, i32 } poison, ptr %31, 0
  %34 = insertvalue { ptr, i32 } %33, i32 %32, 1
  resume { ptr, i32 } %34
}