; Function Attrs: mustprogress uwtable
define void @_ZNK15SequenceDiagram13elidedCommentERK7QString(ptr dead_on_unwind noalias writable sret(%class.QString) align 8 %0, ptr nocapture noundef nonnull readonly align 8 dereferenceable(240) %1, ptr noundef nonnull align 8 dereferenceable(24) %2) local_unnamed_addr #1 align 2 personality ptr @__gxx_personality_v0 {
  %4 = alloca %class.QFontMetrics, align 8
  %5 = alloca %class.QFont, align 8
  %6 = getelementptr inbounds i8, ptr %1, i64 200
  %7 = load ptr, ptr %6, align 8
  %8 = getelementptr inbounds i8, ptr %7, i64 200
  call void @_ZN5QFontC1ERKS_(ptr noundef nonnull align 8 dereferenceable(12) %5, ptr noundef nonnull align 8 dereferenceable(12) %8)
  invoke void @_ZN12QFontMetricsC1ERK5QFont(ptr noundef nonnull align 8 dereferenceable(8) %4, ptr noundef nonnull align 8 dereferenceable(12) %5)
          to label %9 unwind label %14

9:                                                ; preds = %3
  call void @_ZN5QFontD1Ev(ptr noundef nonnull align 8 dereferenceable(12) %5) #21
  %10 = invoke noundef i32 @_ZNK12QFontMetrics6heightEv(ptr noundef nonnull align 8 dereferenceable(8) %4)
          to label %11 unwind label %16

11:                                               ; preds = %9
  %12 = mul i32 %10, 20
  invoke void @_ZNK12QFontMetrics10elidedTextERK7QStringN2Qt13TextElideModeEii(ptr dead_on_unwind writable sret(%class.QString) align 8 %0, ptr noundef nonnull align 8 dereferenceable(8) %4, ptr noundef nonnull align 8 dereferenceable(24) %2, i32 noundef 1, i32 noundef %12, i32 noundef 0)
          to label %13 unwind label %16

13:                                               ; preds = %11
  call void @_ZN12QFontMetricsD1Ev(ptr noundef nonnull align 8 dereferenceable(8) %4) #21
  ret void

14:                                               ; preds = %3
  %15 = landingpad { ptr, i32 }
          cleanup
  call void @_ZN5QFontD1Ev(ptr noundef nonnull align 8 dereferenceable(12) %5) #21
  br label %18

16:                                               ; preds = %11, %9
  %17 = landingpad { ptr, i32 }
          cleanup
  call void @_ZN12QFontMetricsD1Ev(ptr noundef nonnull align 8 dereferenceable(8) %4) #21
  br label %18

18:                                               ; preds = %16, %14
  %.pn = phi { ptr, i32 } [ %17, %16 ], [ %15, %14 ]
  resume { ptr, i32 } %.pn
}